; Function Attrs: mustprogress nofree norecurse nosync nounwind willreturn memory(argmem: read) uwtable
define noundef zeroext i1 @_ZNK7rocksdb19CuckooTableIterator5ValidEv(ptr nocapture noundef nonnull readonly align 8 dereferenceable(224) %this) unnamed_addr #8 align 2 {
entry:
  %curr_key_idx_ = getelementptr inbounds i8, ptr %this, i64 128
  %0 = load i32, ptr %curr_key_idx_, align 8
  %conv = zext i32 %0 to i64
  %sorted_bucket_ids_ = getelementptr inbounds i8, ptr %this, i64 104
  %_M_finish.i = getelementptr inbounds i8, ptr %this, i64 112
  %1 = load ptr, ptr %_M_finish.i, align 8
  %2 = load ptr, ptr %sorted_bucket_ids_, align 8
  %sub.ptr.lhs.cast.i = ptrtoint ptr %1 to i64
  %sub.ptr.rhs.cast.i = ptrtoint ptr %2 to i64
  %sub.ptr.sub.i = sub i64 %sub.ptr.lhs.cast.i, %sub.ptr.rhs.cast.i
  %sub.ptr.div.i = ashr exact i64 %sub.ptr.sub.i, 2
  %cmp = icmp ugt i64 %sub.ptr.div.i, %conv
  ret i1 %cmp
}